; Function Attrs: mustprogress uwtable
define void @_ZN3gmx30TrajectoryAnalysisRunnerCommonC2EPNS_26TrajectoryAnalysisSettingsE(ptr nocapture noundef nonnull writeonly align 8 dereferenceable(8) %0, ptr noundef %1) unnamed_addr #0 align 2 personality ptr @__gxx_personality_v0 {
  %3 = tail call noalias noundef nonnull dereferenceable(280) ptr @_Znwm(i64 noundef 280) #17
  invoke void @_ZN3gmx30TrajectoryAnalysisRunnerCommon4ImplC1EPNS_26TrajectoryAnalysisSettingsE(ptr noundef nonnull align 8 dereferenceable(280) %3, ptr noundef %1)
          to label %4 unwind label %5

4:                                                ; preds = %2
  store ptr %3, ptr %0, align 8
  ret void

5:                                                ; preds = %2
  %6 = landingpad { ptr, i32 }
          cleanup
  tail call void @_ZdlPv(ptr noundef nonnull %3) #15
  resume { ptr, i32 } %6
}